; Function Attrs: nounwind uwtable
define dso_local noalias ptr @activeDefragAlloc(ptr noundef %0) #0 {
  %2 = tail call i32 @je_get_defrag_hint(ptr noundef %0) #10
  %.not = icmp eq i32 %2, 0
  br i1 %.not, label %3, label %6

3:                                                ; preds = %1
  %4 = load i64, ptr getelementptr inbounds nuw (i8, ptr @server, i64 2592), align 8, !tbaa !5
  %5 = add nsw i64 %4, 1
  store i64 %5, ptr getelementptr inbounds nuw (i8, ptr @server, i64 2592), align 8, !tbaa !5
  br label %11

6:                                                ; preds = %1
  %7 = tail call i64 @je_malloc_usable_size(ptr noundef %0) #10
  %8 = tail call noalias ptr @zmalloc_no_tcache(i64 noundef %7) #10
  tail call void @llvm.memcpy.p0.p0.i64(ptr align 1 %8, ptr align 1 %0, i64 %7, i1 false)
  tail call void @zfree_no_tcache(ptr noundef %0) #10
  %9 = load i64, ptr getelementptr inbounds nuw (i8, ptr @server, i64 2584), align 8, !tbaa !38
  %10 = add nsw i64 %9, 1
  store i64 %10, ptr getelementptr inbounds nuw (i8, ptr @server, i64 2584), align 8, !tbaa !38
  br label %11

11:                                               ; preds = %6, %3
  %.0 = phi ptr [ %8, %6 ], [ null, %3 ]
  ret ptr %.0
}